target datalayout = "e-m:e-p270:32:32-p271:32:32-p272:64:64-i64:64-i128:128-f80:128-n8:16:32:64-S128"
target triple = "x86_64-pc-linux-gnu"

%struct._packet_info = type { ptr, ptr, i32, i32, %struct.nstime_t, %struct.nstime_t, %struct.nstime_t, i8, ptr, ptr, ptr, ptr, %struct._address, %struct._address, %struct._address, %struct._address, %struct._address, %struct._address, i32, ptr, i8, [3 x i8], %struct.anon, i32, i32, i32, i32, ptr, i8, ptr, ptr, i16, i16, i32, i32, i16, i32, i32, ptr, ptr, ptr, i8, i8, i16, i16, i16, i32, i16, i16, ptr, ptr, ptr, ptr, ptr, i32, i32 }
%struct.nstime_t = type { i64, i32 }
%struct._address = type { i32, i32, ptr, ptr }
%struct.anon = type { i8, [3 x i8] }
%struct._ndmp_conv_data_t = type { i8, ptr, ptr, ptr, ptr, ptr, ptr }
%struct._frame_data = type <{ i32, i32, i32, i32, i32, [4 x i8], i64, ptr, ptr, ptr, i8, i16, [5 x i8], %struct.nstime_t, %struct.nstime_t, i32, i32 }>
%struct._itl_nexus_t = type { i8, ptr }

@hf_ndmp_tape_device = internal global i32 0, align 4
@hf_ndmp_tape_open_mode = internal global i32 0, align 4
@ndmp_conv_data = internal global ptr null, align 8

; Function Attrs: null_pointer_is_valid sspstrong uwtable
define internal ptr @get_itl_nexus(ptr noundef %0, i1 noundef zeroext %1) #0 {
  %3 = alloca ptr, align 8
  %4 = alloca i8, align 1
  %5 = alloca ptr, align 8
  store ptr %0, ptr %3, align 8
  %6 = zext i1 %1 to i8
  store i8 %6, ptr %4, align 1
  call void @llvm.lifetime.start.p0(i64 8, ptr %5) #9
  %7 = load i8, ptr %4, align 1, !range !6, !noundef !7
  %8 = trunc i8 %7 to i1
  br i1 %8, label %18, label %9

9:                                                ; preds = %2
  %10 = load ptr, ptr @ndmp_conv_data, align 8
  %11 = getelementptr inbounds nuw %struct._ndmp_conv_data_t, ptr %10, i32 0, i32 2
  %12 = load ptr, ptr %11, align 8
  %13 = load ptr, ptr %3, align 8
  %14 = getelementptr inbounds nuw %struct._packet_info, ptr %13, i32 0, i32 3
  %15 = load i32, ptr %14, align 4
  %16 = call ptr @wmem_tree_lookup32_le(ptr noundef %12, i32 noundef %15)
  store ptr %16, ptr %5, align 8
  %17 = icmp ne ptr %16, null
  br i1 %17, label %35, label %18

18:                                               ; preds = %9, %2
  %19 = call ptr @wmem_file_scope()
  %20 = call noalias ptr @wmem_alloc(ptr noundef %19, i64 noundef 16) #10
  store ptr %20, ptr %5, align 8
  %21 = load ptr, ptr %5, align 8
  %22 = getelementptr inbounds nuw %struct._itl_nexus_t, ptr %21, i32 0, i32 0
  store i8 -1, ptr %22, align 8
  %23 = load ptr, ptr @ndmp_conv_data, align 8
  %24 = getelementptr inbounds nuw %struct._ndmp_conv_data_t, ptr %23, i32 0, i32 6
  %25 = load ptr, ptr %24, align 8
  %26 = load ptr, ptr %5, align 8
  %27 = getelementptr inbounds nuw %struct._itl_nexus_t, ptr %26, i32 0, i32 1
  store ptr %25, ptr %27, align 8
  %28 = load ptr, ptr @ndmp_conv_data, align 8
  %29 = getelementptr inbounds nuw %struct._ndmp_conv_data_t, ptr %28, i32 0, i32 2
  %30 = load ptr, ptr %29, align 8
  %31 = load ptr, ptr %3, align 8
  %32 = getelementptr inbounds nuw %struct._packet_info, ptr %31, i32 0, i32 3
  %33 = load i32, ptr %32, align 4
  %34 = load ptr, ptr %5, align 8
  call void @wmem_tree_insert32(ptr noundef %30, i32 noundef %33, ptr noundef %34)
  br label %35

35:                                               ; preds = %18, %9
  %36 = load ptr, ptr %5, align 8
  call void @llvm.lifetime.end.p0(i64 8, ptr %5) #9
  ret ptr %36
}

; Function Attrs: null_pointer_is_valid sspstrong uwtable
define internal i32 @dissect_tape_open_request(ptr noundef %0, i32 noundef %1, ptr noundef %2, ptr noundef %3, i32 noundef %4) #0 {
  %6 = alloca ptr, align 8
  %7 = alloca i32, align 4
  %8 = alloca ptr, align 8
  %9 = alloca ptr, align 8
  %10 = alloca i32, align 4
  store ptr %0, ptr %6, align 8
  store i32 %1, ptr %7, align 4
  store ptr %2, ptr %8, align 8
  store ptr %3, ptr %9, align 8
  store i32 %4, ptr %10, align 4
  %11 = load ptr, ptr %6, align 8
  %12 = load ptr, ptr %9, align 8
  %13 = load i32, ptr @hf_ndmp_tape_device, align 4
  %14 = load i32, ptr %7, align 4
  %15 = call i32 @dissect_rpc_string(ptr noundef %11, ptr noundef %12, i32 noundef %13, i32 noundef %14, ptr noundef null)
  store i32 %15, ptr %7, align 4
  %16 = load ptr, ptr %9, align 8
  %17 = load i32, ptr @hf_ndmp_tape_open_mode, align 4
  %18 = load ptr, ptr %6, align 8
  %19 = load i32, ptr %7, align 4
  %20 = call ptr @proto_tree_add_item(ptr noundef %16, i32 noundef %17, ptr noundef %18, i32 noundef %19, i32 noundef 4, i32 noundef 0)
  %21 = load i32, ptr %7, align 4
  %22 = add i32 %21, 4
  store i32 %22, ptr %7, align 4
  %23 = load ptr, ptr %8, align 8
  %24 = getelementptr inbounds nuw %struct._packet_info, ptr %23, i32 0, i32 8
  %25 = load ptr, ptr %24, align 8
  %26 = getelementptr inbounds nuw %struct._frame_data, ptr %25, i32 0, i32 11
  %27 = load i16, ptr %26, align 1
  %28 = lshr i16 %27, 3
  %29 = and i16 %28, 1
  %30 = zext i16 %29 to i32
  %31 = icmp ne i32 %30, 0
  br i1 %31, label %35, label %32

32:                                               ; preds = %5
  %33 = load ptr, ptr %8, align 8
  %34 = call ptr @get_itl_nexus(ptr noundef %33, i1 noundef zeroext true)
  br label %35

35:                                               ; preds = %32, %5
  %36 = load i32, ptr %7, align 4
  ret i32 %36
}