; Function Attrs: null_pointer_is_valid sspstrong uwtable
define internal noundef i32 @dissect_tape_open_request(ptr noundef %0, i32 noundef %1, ptr noundef readonly captures(none) %2, ptr noundef %3, i32 %4) #0 {
  %6 = load i32, ptr @hf_ndmp_tape_device, align 4
  %7 = tail call i32 @dissect_rpc_string(ptr noundef %0, ptr noundef %3, i32 noundef %6, i32 noundef %1, ptr noundef null)
  %8 = load i32, ptr @hf_ndmp_tape_open_mode, align 4
  %9 = tail call ptr @proto_tree_add_item(ptr noundef %3, i32 noundef %8, ptr noundef %0, i32 noundef %7, i32 noundef 4, i32 noundef 0)
  %10 = getelementptr inbounds nuw i8, ptr %2, i64 80
  %11 = load ptr, ptr %10, align 8
  %12 = getelementptr inbounds nuw i8, ptr %11, i64 57
  %13 = load i16, ptr %12, align 1
  %14 = and i16 %13, 8
  %.not = icmp eq i16 %14, 0
  br i1 %.not, label %15, label %26

15:                                               ; preds = %5
  %16 = tail call ptr @wmem_file_scope()
  %17 = tail call noalias dereferenceable_or_null(16) ptr @wmem_alloc(ptr noundef %16, i64 noundef 16) #8
  store i8 -1, ptr %17, align 8
  %18 = load ptr, ptr @ndmp_conv_data, align 8
  %19 = getelementptr inbounds nuw i8, ptr %18, i64 48
  %20 = load ptr, ptr %19, align 8
  %21 = getelementptr inbounds nuw i8, ptr %17, i64 8
  store ptr %20, ptr %21, align 8
  %22 = getelementptr inbounds nuw i8, ptr %18, i64 16
  %23 = load ptr, ptr %22, align 8
  %24 = getelementptr inbounds nuw i8, ptr %2, i64 20
  %25 = load i32, ptr %24, align 4
  tail call void @wmem_tree_insert32(ptr noundef %23, i32 noundef %25, ptr noundef %17)
  br label %26

26:                                               ; preds = %15, %5
  %27 = add i32 %7, 4
  ret i32 %27
}